; Function Attrs: nounwind uwtable
define internal i32 @epki2pki_decode(ptr noundef %0, ptr noundef %1, i32 %2, ptr noundef readonly captures(none) %3, ptr noundef %4, ptr noundef readonly captures(none) %5, ptr noundef %6) #0 {
  %8 = alloca ptr, align 8
  %9 = alloca ptr, align 8
  %10 = alloca ptr, align 8
  %11 = alloca [1024 x i8], align 16
  %12 = alloca i64, align 8
  %13 = alloca ptr, align 8
  %14 = alloca ptr, align 8
  %15 = alloca i32, align 4
  %16 = alloca [50 x i8], align 16
  %17 = alloca [5 x %struct.ossl_param_st], align 16
  %18 = alloca i32, align 4
  %19 = alloca %struct.ossl_param_st, align 8
  %20 = alloca %struct.ossl_param_st, align 8
  %21 = alloca %struct.ossl_param_st, align 8
  %22 = alloca %struct.ossl_param_st, align 8
  call void @llvm.lifetime.start.p0(i64 8, ptr nonnull %8) #5
  store ptr null, ptr %8, align 8, !tbaa !9
  call void @llvm.lifetime.start.p0(i64 8, ptr nonnull %9) #5
  call void @llvm.lifetime.start.p0(i64 8, ptr nonnull %10) #5
  store ptr null, ptr %10, align 8, !tbaa !11
  %23 = load ptr, ptr %0, align 8, !tbaa !3
  %24 = tail call ptr @ossl_bio_new_from_core_bio(ptr noundef %23, ptr noundef %1) #5
  %25 = icmp eq ptr %24, null
  br i1 %25, label %77, label %26

26:                                               ; preds = %7
  %27 = call i32 @asn1_d2i_read_bio(ptr noundef nonnull %24, ptr noundef nonnull %8) #5
  %28 = icmp sgt i32 %27, -1
  %29 = call i32 @BIO_free(ptr noundef nonnull %24) #5
  br i1 %28, label %30, label %77

30:                                               ; preds = %26
  %31 = load ptr, ptr %8, align 8, !tbaa !9
  %32 = getelementptr inbounds nuw i8, ptr %31, i64 8
  %33 = load ptr, ptr %32, align 8, !tbaa !13
  store ptr %33, ptr %9, align 8, !tbaa !17
  %34 = load i64, ptr %31, align 8, !tbaa !18
  call void @CRYPTO_free(ptr noundef nonnull %31, ptr noundef nonnull @.str, i32 noundef 110) #5
  %35 = call i32 @ERR_set_mark() #5
  %36 = call ptr @d2i_X509_SIG(ptr noundef null, ptr noundef nonnull %9, i64 noundef %34) #5
  %.not = icmp eq ptr %36, null
  br i1 %.not, label %59, label %37

37:                                               ; preds = %30
  call void @llvm.lifetime.start.p0(i64 1024, ptr nonnull %11) #5
  call void @llvm.lifetime.start.p0(i64 8, ptr nonnull %12) #5
  store i64 0, ptr %12, align 8, !tbaa !19
  %38 = call i32 @ERR_clear_last_mark() #5
  %39 = call i32 %5(ptr noundef nonnull %11, i64 noundef 1024, ptr noundef nonnull %12, ptr noundef null, ptr noundef %6) #5
  %.not41 = icmp eq i32 %39, 0
  br i1 %.not41, label %40, label %41

40:                                               ; preds = %37
  call void @ERR_new() #5
  call void @ERR_set_debug(ptr noundef nonnull @.str, i32 noundef 121, ptr noundef nonnull @__func__.epki2pki_decode) #5
  call void (i32, i32, ptr, ...) @ERR_set_error(i32 noundef 57, i32 noundef 159, ptr noundef null) #5
  br label %58

41:                                               ; preds = %37
  call void @llvm.lifetime.start.p0(i64 8, ptr nonnull %13) #5
  call void @llvm.lifetime.start.p0(i64 8, ptr nonnull %14) #5
  store ptr null, ptr %14, align 8, !tbaa !17
  call void @llvm.lifetime.start.p0(i64 4, ptr nonnull %15) #5
  store i32 0, ptr %15, align 4, !tbaa !20
  call void @X509_SIG_get0(ptr noundef nonnull %36, ptr noundef nonnull %10, ptr noundef nonnull %13) #5
  %42 = load ptr, ptr %10, align 8, !tbaa !11
  %43 = load i64, ptr %12, align 8, !tbaa !19
  %44 = trunc i64 %43 to i32
  %45 = load ptr, ptr %13, align 8, !tbaa !22
  %46 = getelementptr inbounds nuw i8, ptr %45, i64 8
  %47 = load ptr, ptr %46, align 8, !tbaa !24
  %48 = load i32, ptr %45, align 8, !tbaa !26
  %49 = load ptr, ptr %0, align 8, !tbaa !3
  %50 = call ptr @ossl_prov_ctx_get0_libctx(ptr noundef %49) #5
  %51 = getelementptr inbounds nuw i8, ptr %0, i64 8
  %52 = call ptr @PKCS12_pbe_crypt_ex(ptr noundef %42, ptr noundef nonnull %11, i32 noundef %44, ptr noundef %47, i32 noundef %48, ptr noundef nonnull %14, ptr noundef nonnull %15, i32 noundef 0, ptr noundef %50, ptr noundef nonnull %51) #5
  %.not42 = icmp eq ptr %52, null
  br i1 %.not42, label %57, label %53

53:                                               ; preds = %41
  call void @CRYPTO_free(ptr noundef %33, ptr noundef nonnull @.str, i32 noundef 136) #5
  %54 = load ptr, ptr %14, align 8, !tbaa !17
  %55 = load i32, ptr %15, align 4, !tbaa !20
  %56 = sext i32 %55 to i64
  br label %57

57:                                               ; preds = %41, %53
  %.136 = phi i64 [ %56, %53 ], [ %34, %41 ]
  %.133 = phi ptr [ %54, %53 ], [ %33, %41 ]
  %.1 = phi i32 [ 1, %53 ], [ 0, %41 ]
  store ptr null, ptr %10, align 8, !tbaa !11
  call void @llvm.lifetime.end.p0(i64 4, ptr nonnull %15) #5
  call void @llvm.lifetime.end.p0(i64 8, ptr nonnull %14) #5
  call void @llvm.lifetime.end.p0(i64 8, ptr nonnull %13) #5
  br label %58

58:                                               ; preds = %57, %40
  %.035 = phi i64 [ %.136, %57 ], [ %34, %40 ]
  %.032 = phi ptr [ %.133, %57 ], [ %33, %40 ]
  %.031 = phi i32 [ %.1, %57 ], [ 0, %40 ]
  call void @X509_SIG_free(ptr noundef nonnull %36) #5
  call void @llvm.lifetime.end.p0(i64 8, ptr nonnull %12) #5
  call void @llvm.lifetime.end.p0(i64 1024, ptr nonnull %11) #5
  br label %61

59:                                               ; preds = %30
  %60 = call i32 @ERR_pop_to_mark() #5
  br label %61

61:                                               ; preds = %59, %58
  %.237 = phi i64 [ %.035, %58 ], [ %34, %59 ]
  %.234 = phi ptr [ %.032, %58 ], [ %33, %59 ]
  %.2 = phi i32 [ %.031, %58 ], [ 1, %59 ]
  %62 = call i32 @ERR_set_mark() #5
  store ptr %.234, ptr %9, align 8, !tbaa !17
  %63 = call ptr @d2i_PKCS8_PRIV_KEY_INFO(ptr noundef null, ptr noundef nonnull %9, i64 noundef %.237) #5
  %64 = call i32 @ERR_pop_to_mark() #5
  %.not43 = icmp eq ptr %63, null
  br i1 %.not43, label %76, label %65

65:                                               ; preds = %61
  %66 = call i32 @PKCS8_pkey_get0(ptr noundef null, ptr noundef null, ptr noundef null, ptr noundef nonnull %10, ptr noundef nonnull %63) #5
  %.not44 = icmp eq i32 %66, 0
  br i1 %.not44, label %76, label %67

67:                                               ; preds = %65
  call void @llvm.lifetime.start.p0(i64 50, ptr nonnull %16) #5
  call void @llvm.lifetime.start.p0(i64 200, ptr nonnull %17) #5
  call void @llvm.lifetime.start.p0(i64 4, ptr nonnull %18) #5
  store i32 2, ptr %18, align 4, !tbaa !20
  %68 = load ptr, ptr %10, align 8, !tbaa !11
  %69 = load ptr, ptr %68, align 8, !tbaa !27
  %70 = call i32 @OBJ_obj2txt(ptr noundef nonnull %16, i32 noundef 50, ptr noundef %69, i32 noundef 0) #5
  %71 = getelementptr inbounds nuw i8, ptr %17, i64 40
  call void @OSSL_PARAM_construct_utf8_string(ptr dead_on_unwind nonnull writable sret(%struct.ossl_param_st) align 8 %17, ptr noundef nonnull @.str.1, ptr noundef nonnull %16, i64 noundef 0) #5
  %72 = getelementptr inbounds nuw i8, ptr %17, i64 80
  call void @llvm.lifetime.start.p0(i64 40, ptr nonnull %19) #5
  call void @OSSL_PARAM_construct_utf8_string(ptr dead_on_unwind nonnull writable sret(%struct.ossl_param_st) align 8 %19, ptr noundef nonnull @.str.2, ptr noundef nonnull @.str.3, i64 noundef 0) #5
  call void @llvm.memcpy.p0.p0.i64(ptr noundef nonnull align 8 dereferenceable(40) %71, ptr noundef nonnull align 8 dereferenceable(40) %19, i64 40, i1 false), !tbaa.struct !31
  call void @llvm.lifetime.end.p0(i64 40, ptr nonnull %19) #5
  %73 = getelementptr inbounds nuw i8, ptr %17, i64 120
  call void @llvm.lifetime.start.p0(i64 40, ptr nonnull %20) #5
  call void @OSSL_PARAM_construct_octet_string(ptr dead_on_unwind nonnull writable sret(%struct.ossl_param_st) align 8 %20, ptr noundef nonnull @.str.4, ptr noundef %.234, i64 noundef %.237) #5
  call void @llvm.memcpy.p0.p0.i64(ptr noundef nonnull align 16 dereferenceable(40) %72, ptr noundef nonnull align 8 dereferenceable(40) %20, i64 40, i1 false), !tbaa.struct !31
  call void @llvm.lifetime.end.p0(i64 40, ptr nonnull %20) #5
  %74 = getelementptr inbounds nuw i8, ptr %17, i64 160
  call void @llvm.lifetime.start.p0(i64 40, ptr nonnull %21) #5
  call void @OSSL_PARAM_construct_int(ptr dead_on_unwind nonnull writable sret(%struct.ossl_param_st) align 8 %21, ptr noundef nonnull @.str.5, ptr noundef nonnull %18) #5
  call void @llvm.memcpy.p0.p0.i64(ptr noundef nonnull align 8 dereferenceable(40) %73, ptr noundef nonnull align 8 dereferenceable(40) %21, i64 40, i1 false), !tbaa.struct !31
  call void @llvm.lifetime.end.p0(i64 40, ptr nonnull %21) #5
  call void @llvm.lifetime.start.p0(i64 40, ptr nonnull %22) #5
  call void @OSSL_PARAM_construct_end(ptr dead_on_unwind nonnull writable sret(%struct.ossl_param_st) align 8 %22) #5
  call void @llvm.memcpy.p0.p0.i64(ptr noundef nonnull align 16 dereferenceable(40) %74, ptr noundef nonnull align 8 dereferenceable(40) %22, i64 40, i1 false), !tbaa.struct !31
  call void @llvm.lifetime.end.p0(i64 40, ptr nonnull %22) #5
  %75 = call i32 %3(ptr noundef nonnull %17, ptr noundef %4) #5
  call void @llvm.lifetime.end.p0(i64 4, ptr nonnull %18) #5
  call void @llvm.lifetime.end.p0(i64 200, ptr nonnull %17) #5
  call void @llvm.lifetime.end.p0(i64 50, ptr nonnull %16) #5
  br label %76

76:                                               ; preds = %67, %65, %61
  %.3 = phi i32 [ %75, %67 ], [ %.2, %65 ], [ %.2, %61 ]
  call void @PKCS8_PRIV_KEY_INFO_free(ptr noundef %63) #5
  call void @CRYPTO_free(ptr noundef %.234, ptr noundef nonnull @.str, i32 noundef 175) #5
  br label %77

77:                                               ; preds = %26, %7, %76
  %.0 = phi i32 [ %.3, %76 ], [ 0, %7 ], [ 1, %26 ]
  call void @llvm.lifetime.end.p0(i64 8, ptr nonnull %10) #5
  call void @llvm.lifetime.end.p0(i64 8, ptr nonnull %9) #5
  call void @llvm.lifetime.end.p0(i64 8, ptr nonnull %8) #5
  ret i32 %.0
}